; Function Attrs: nounwind uwtable
define dso_local range(i32 0, 2) i32 @is_nonbare_repository_dir(ptr noundef %0) local_unnamed_addr #0 {
  %2 = alloca i32, align 4
  call void @llvm.lifetime.start.p0(i64 4, ptr nonnull %2) #25
  %3 = getelementptr inbounds nuw i8, ptr %0, i64 8
  %4 = load i64, ptr %3, align 8, !tbaa !20
  %.not.i = icmp eq i64 %4, 0
  br i1 %.not.i, label %strbuf_complete.exit, label %5

5:                                                ; preds = %1
  %6 = getelementptr inbounds nuw i8, ptr %0, i64 16
  %7 = load ptr, ptr %6, align 8, !tbaa !14
  %8 = getelementptr i8, ptr %7, i64 %4
  %9 = getelementptr i8, ptr %8, i64 -1
  %10 = load i8, ptr %9, align 1, !tbaa !4
  %.not6.i = icmp eq i8 %10, 47
  br i1 %.not6.i, label %strbuf_complete.exit, label %11

11:                                               ; preds = %5
  %12 = load i64, ptr %0, align 8, !tbaa !22
  %.not.i.i.i = icmp eq i64 %12, 0
  %.neg.i.i = add i64 %4, 1
  %.not.i.i = icmp eq i64 %12, %.neg.i.i
  %or.cond.i = or i1 %.not.i.i.i, %.not.i.i
  br i1 %or.cond.i, label %strbuf_avail.exit.thread.i.i, label %strbuf_addch.exit.i

strbuf_avail.exit.thread.i.i:                     ; preds = %11
  tail call void @strbuf_grow(ptr noundef nonnull %0, i64 noundef 1) #25
  %.pre.i.i = load i64, ptr %3, align 8, !tbaa !20
  %.pre7.i.i = add i64 %.pre.i.i, 1
  %.pre.i = load ptr, ptr %6, align 8, !tbaa !14
  br label %strbuf_addch.exit.i

strbuf_addch.exit.i:                              ; preds = %strbuf_avail.exit.thread.i.i, %11
  %13 = phi ptr [ %.pre.i, %strbuf_avail.exit.thread.i.i ], [ %7, %11 ]
  %.pre-phi.i.i = phi i64 [ %.pre7.i.i, %strbuf_avail.exit.thread.i.i ], [ %.neg.i.i, %11 ]
  %14 = phi i64 [ %.pre.i.i, %strbuf_avail.exit.thread.i.i ], [ %4, %11 ]
  store i64 %.pre-phi.i.i, ptr %3, align 8, !tbaa !20
  %15 = getelementptr inbounds nuw i8, ptr %13, i64 %14
  store i8 47, ptr %15, align 1, !tbaa !4
  %16 = load ptr, ptr %6, align 8, !tbaa !14
  %17 = load i64, ptr %3, align 8, !tbaa !20
  %18 = getelementptr inbounds nuw i8, ptr %16, i64 %17
  store i8 0, ptr %18, align 1, !tbaa !4
  br label %strbuf_complete.exit

strbuf_complete.exit:                             ; preds = %1, %5, %strbuf_addch.exit.i
  tail call void @strbuf_add(ptr noundef nonnull %0, ptr noundef nonnull @.str.17, i64 noundef 4) #25
  %19 = getelementptr inbounds nuw i8, ptr %0, i64 16
  %20 = load ptr, ptr %19, align 8, !tbaa !14
  %21 = call ptr @read_gitfile_gently(ptr noundef %20, ptr noundef nonnull %2)
  %.not = icmp eq ptr %21, null
  br i1 %.not, label %22, label %25

22:                                               ; preds = %strbuf_complete.exit
  %23 = load ptr, ptr %19, align 8, !tbaa !14
  %24 = call i32 @is_git_directory(ptr noundef %23)
  %.not8 = icmp eq i32 %24, 0
  br i1 %.not8, label %26, label %25

25:                                               ; preds = %22, %strbuf_complete.exit
  br label %26

26:                                               ; preds = %25, %22
  %.0 = phi i32 [ 1, %25 ], [ 0, %22 ]
  %27 = load i32, ptr %2, align 4, !tbaa !7
  %28 = load i64, ptr %0, align 8, !tbaa !22
  %spec.select.i = call i64 @llvm.usub.sat.i64(i64 %28, i64 1)
  %29 = icmp ugt i64 %4, %spec.select.i
  br i1 %29, label %30, label %31

30:                                               ; preds = %26
  call void (ptr, i32, ptr, ...) @BUG_fl(ptr noundef nonnull @.str.95, i32 noundef 167, ptr noundef nonnull @.str.96) #26
  unreachable

31:                                               ; preds = %26
  store i64 %4, ptr %3, align 8, !tbaa !20
  %32 = load ptr, ptr %19, align 8, !tbaa !14
  %.not9.i = icmp eq ptr %32, @strbuf_slopbuf
  br i1 %.not9.i, label %strbuf_setlen.exit, label %33

33:                                               ; preds = %31
  %34 = getelementptr inbounds nuw i8, ptr %32, i64 %4
  store i8 0, ptr %34, align 1, !tbaa !4
  br label %strbuf_setlen.exit

strbuf_setlen.exit:                               ; preds = %31, %33
  %35 = add i32 %27, -3
  %or.cond = icmp ult i32 %35, 2
  %spec.select = select i1 %or.cond, i32 1, i32 %.0
  call void @llvm.lifetime.end.p0(i64 4, ptr nonnull %2) #25
  ret i32 %spec.select
}